cnumpy.core.multiarray
_reconstruct
p0
(cnumpy
ndarray
p1
(I0
tp2
S'b'
p3
tp4
Rp5
(I1
(I3
I1
tp6
cnumpy
dtype
p7
(S'f8'
p8
I0
I1
tp9
Rp10
(I3
S'<'
p11
NNNI-1
I-1
I0
tp12
bI00
S'`\x93E\x97\xd5\xc7(\xc0o\xc2Ke\xb4\xcb[@\xa6\xac\xb9y\xffo\x83@'
p13
tp14
b.