cnumpy.core.multiarray
_reconstruct
p0
(cnumpy
ndarray
p1
(I0
tp2
S'b'
p3
tp4
Rp5
(I1
(I3
I1
tp6
cnumpy
dtype
p7
(S'f8'
p8
I0
I1
tp9
Rp10
(I3
S'<'
p11
NNNI-1
I-1
I0
tp12
bI00
S"o\x1c\xd5\xd1\x9b6\xb3?[\xffw'N~\x01\xc0\x15q\x88\xf1m\xe8\x01@"
p13
tp14
b.