cnumpy.core.multiarray
_reconstruct
p0
(cnumpy
ndarray
p1
(I0
tp2
S'b'
p3
tp4
Rp5
(I1
(I3
I1
tp6
cnumpy
dtype
p7
(S'f8'
p8
I0
I1
tp9
Rp10
(I3
S'<'
p11
NNNI-1
I-1
I0
tp12
bI00
S'\xbd\x1b\xc1\xa4>\xf1\x00\xc0\xe3\x81B\x12y09\xc0!\x80\x8ex\xce\xe8\x88@'
p13
tp14
b.